; Function Attrs: mustprogress uwtable
define void @_ZN5faiss17ResidualQuantizerC2EmRKSt6vectorImSaImEENS_17AdditiveQuantizer13Search_type_tE(ptr noundef nonnull align 8 dereferenceable(432) %0, i64 noundef %1, ptr noundef nonnull align 8 dereferenceable(24) %2, i32 noundef %3) unnamed_addr #0 align 2 personality ptr @__gxx_personality_v0 {
  tail call void @_ZN5faiss17AdditiveQuantizerC2Ev(ptr noundef nonnull align 8 dereferenceable(308) %0)
  store ptr getelementptr inbounds ({ [10 x ptr] }, ptr @_ZTVN5faiss17ResidualQuantizerE, i64 0, i32 0, i64 2), ptr %0, align 8
  %5 = getelementptr inbounds i8, ptr %0, i64 308
  store <4 x i32> <i32 1, i32 5, i32 5, i32 0>, ptr %5, align 4
  %6 = getelementptr inbounds i8, ptr %0, i64 324
  store i32 0, ptr %6, align 4
  %7 = getelementptr inbounds i8, ptr %0, i64 328
  invoke void @_ZN5faiss34ProgressiveDimClusteringParametersC1Ev(ptr noundef nonnull align 8 dereferenceable(45) %7)
          to label %_ZN5faiss17ResidualQuantizerC2Ev.exit unwind label %8

common.resume:                                    ; preds = %26, %8
  %common.resume.op = phi { ptr, i32 } [ %9, %8 ], [ %27, %26 ]
  resume { ptr, i32 } %common.resume.op

8:                                                ; preds = %4
  %9 = landingpad { ptr, i32 }
          cleanup
  tail call void @_ZN5faiss17AdditiveQuantizerD2Ev(ptr noundef nonnull align 8 dereferenceable(308) %0) #16
  br label %common.resume

_ZN5faiss17ResidualQuantizerC2Ev.exit:            ; preds = %4
  %10 = getelementptr inbounds i8, ptr %0, i64 376
  %11 = getelementptr inbounds i8, ptr %0, i64 8
  %12 = getelementptr inbounds i8, ptr %0, i64 24
  store i64 0, ptr %12, align 8
  %13 = getelementptr inbounds i8, ptr %0, i64 129
  store i8 0, ptr %13, align 1
  tail call void @llvm.memset.p0.i64(ptr noundef nonnull align 8 dereferenceable(56) %10, i8 0, i64 56, i1 false)
  %14 = getelementptr inbounds i8, ptr %0, i64 296
  store i32 %3, ptr %14, align 8
  store i64 %1, ptr %11, align 8
  %15 = getelementptr inbounds i8, ptr %2, i64 8
  %16 = load ptr, ptr %15, align 8
  %17 = load ptr, ptr %2, align 8
  %18 = ptrtoint ptr %16 to i64
  %19 = ptrtoint ptr %17 to i64
  %20 = sub i64 %18, %19
  %21 = ashr exact i64 %20, 3
  store i64 %21, ptr %12, align 8
  %22 = getelementptr inbounds i8, ptr %0, i64 32
  %23 = invoke noundef nonnull align 8 dereferenceable(24) ptr @_ZNSt6vectorImSaImEEaSERKS1_(ptr noundef nonnull align 8 dereferenceable(24) %22, ptr noundef nonnull align 8 dereferenceable(24) %2)
          to label %24 unwind label %26

24:                                               ; preds = %_ZN5faiss17ResidualQuantizerC2Ev.exit
  invoke void @_ZN5faiss17AdditiveQuantizer18set_derived_valuesEv(ptr noundef nonnull align 8 dereferenceable(308) %0)
          to label %25 unwind label %26

25:                                               ; preds = %24
  ret void

26:                                               ; preds = %24, %_ZN5faiss17ResidualQuantizerC2Ev.exit
  %27 = landingpad { ptr, i32 }
          cleanup
  tail call void @_ZN5faiss17ResidualQuantizerD2Ev(ptr noundef nonnull align 8 dereferenceable(432) %0) #16
  br label %common.resume
}